target datalayout = "e-m:e-p270:32:32-p271:32:32-p272:64:64-i64:64-i128:128-f80:128-n8:16:32:64-S128"
target triple = "x86_64-pc-linux-gnu"

%"class.absl::lts_20240722::log_internal::Voidify" = type { i8 }
%"class.absl::lts_20240722::log_internal::LogMessage" = type { %"class.absl::lts_20240722::base_internal::ErrnoSaver", %"class.std::unique_ptr" }
%"class.absl::lts_20240722::base_internal::ErrnoSaver" = type { i32 }
%"class.std::unique_ptr" = type { %"struct.std::__uniq_ptr_data" }
%"struct.std::__uniq_ptr_data" = type { %"class.std::__uniq_ptr_impl" }
%"class.std::__uniq_ptr_impl" = type { %"class.std::tuple" }
%"class.std::tuple" = type { %"struct.std::_Tuple_impl" }
%"struct.std::_Tuple_impl" = type { %"struct.std::_Head_base.1" }
%"struct.std::_Head_base.1" = type { ptr }
%struct._grpc_gcp_RpcProtocolVersions = type { %struct._grpc_gcp_RpcProtocolVersions_Version, %struct._grpc_gcp_RpcProtocolVersions_Version }
%struct._grpc_gcp_RpcProtocolVersions_Version = type { i32, i32 }
%"class.std::basic_string_view" = type { i64, ptr }

@.str = private unnamed_addr constant [149 x i8] c"generated/home/dtcxzyw/WorkSpace/Projects/compilers/llvm-opt-benchmark/bench/grpc/grpc/src/core/tsi/alts/handshaker/transport_security_common_api.cc\00", align 1
@.str.1 = private unnamed_addr constant [65 x i8] c"versions is nullptr in grpc_gcp_rpc_protocol_versions_set_max().\00", align 1
@.str.2 = private unnamed_addr constant [65 x i8] c"versions is nullptr in grpc_gcp_rpc_protocol_versions_set_min().\00", align 1
@.str.6 = private unnamed_addr constant [60 x i8] c"Invalid arguments to grpc_gcp_rpc_protocol_versions_copy().\00", align 1

; Function Attrs: noinline noreturn nounwind uwtable
define linkonce_odr hidden void @__clang_call_terminate(ptr noundef %0) #9 comdat {
  %2 = call ptr @__cxa_begin_catch(ptr %0) #15
  call void @_ZSt9terminatev() #18
  unreachable
}

; Function Attrs: mustprogress nounwind uwtable
define linkonce_odr noundef i64 @_ZNSt11char_traitsIcE6lengthEPKc(ptr noundef %0) #2 comdat align 2 {
  %2 = alloca ptr, align 8
  store ptr %0, ptr %2, align 8, !tbaa !18
  %3 = load ptr, ptr %2, align 8, !tbaa !18
  %4 = call i64 @strlen(ptr noundef %3) #15
  ret i64 %4
}

; Function Attrs: mustprogress uwtable
define linkonce_odr noundef nonnull align 8 dereferenceable(16) ptr @_ZN4absl12lts_2024072212log_internal10LogMessagelsILi65EEERS2_RAT__Kc(ptr noundef nonnull align 8 dereferenceable(16) %0, ptr noundef nonnull align 1 dereferenceable(65) %1) #0 comdat align 2 {
  %3 = alloca ptr, align 8
  %4 = alloca ptr, align 8
  %5 = alloca %"class.std::basic_string_view", align 8
  store ptr %0, ptr %3, align 8, !tbaa !16
  store ptr %1, ptr %4, align 8, !tbaa !18
  %6 = load ptr, ptr %3, align 8
  %7 = load ptr, ptr %4, align 8, !tbaa !18
  %8 = getelementptr inbounds [65 x i8], ptr %7, i64 0, i64 0
  call void @_ZNSt17basic_string_viewIcSt11char_traitsIcEEC2EPKc(ptr noundef nonnull align 8 dereferenceable(16) %5, ptr noundef %8) #15
  %9 = getelementptr inbounds nuw { i64, ptr }, ptr %5, i32 0, i32 0
  %10 = load i64, ptr %9, align 8
  %11 = getelementptr inbounds nuw { i64, ptr }, ptr %5, i32 0, i32 1
  %12 = load ptr, ptr %11, align 8
  call void @_ZN4absl12lts_2024072212log_internal10LogMessage19CopyToEncodedBufferILNS2_10StringTypeE0EEEvSt17basic_string_viewIcSt11char_traitsIcEE(ptr noundef nonnull align 8 dereferenceable(16) %6, i64 %10, ptr %12)
  ret ptr %6
}

; Function Attrs: mustprogress nounwind uwtable
define linkonce_odr void @_ZNSt17basic_string_viewIcSt11char_traitsIcEEC2EPKc(ptr noundef nonnull align 8 dereferenceable(16) %0, ptr noundef nonnull %1) unnamed_addr #2 comdat align 2 personality ptr @__gxx_personality_v0 {
  %3 = alloca ptr, align 8
  %4 = alloca ptr, align 8
  store ptr %0, ptr %3, align 8, !tbaa !99
  store ptr %1, ptr %4, align 8, !tbaa !18
  %5 = load ptr, ptr %3, align 8
  %6 = getelementptr inbounds nuw %"class.std::basic_string_view", ptr %5, i32 0, i32 0
  %7 = load ptr, ptr %4, align 8, !tbaa !18
  %8 = invoke noundef i64 @_ZNSt11char_traitsIcE6lengthEPKc(ptr noundef %7)
          to label %9 unwind label %12

9:                                                ; preds = %2
  store i64 %8, ptr %6, align 8, !tbaa !101
  %10 = getelementptr inbounds nuw %"class.std::basic_string_view", ptr %5, i32 0, i32 1
  %11 = load ptr, ptr %4, align 8, !tbaa !18
  store ptr %11, ptr %10, align 8, !tbaa !103
  ret void

12:                                               ; preds = %2
  %13 = landingpad { ptr, i32 }
          catch ptr null
  %14 = extractvalue { ptr, i32 } %13, 0
  call void @__clang_call_terminate(ptr %14) #18
  unreachable
}

; Function Attrs: mustprogress uwtable
define noundef zeroext i1 @_Z38grpc_gcp_rpc_protocol_versions_set_minP29_grpc_gcp_RpcProtocolVersionsjj(ptr noundef %0, i32 noundef %1, i32 noundef %2) #0 personality ptr @__gxx_personality_v0 {
  %4 = alloca i1, align 1
  %5 = alloca ptr, align 8
  %6 = alloca i32, align 4
  %7 = alloca i32, align 4
  %8 = alloca %"class.absl::lts_20240722::log_internal::Voidify", align 1
  %9 = alloca %"class.absl::lts_20240722::log_internal::LogMessage", align 8
  %10 = alloca ptr, align 8
  %11 = alloca i32, align 4
  store ptr %0, ptr %5, align 8, !tbaa !3
  store i32 %1, ptr %6, align 4, !tbaa !8
  store i32 %2, ptr %7, align 4, !tbaa !8
  %12 = load ptr, ptr %5, align 8, !tbaa !3
  %13 = icmp eq ptr %12, null
  br i1 %13, label %14, label %24

14:                                               ; preds = %3
  call void @llvm.lifetime.start.p0(i64 1, ptr %8) #15
  call void @llvm.lifetime.start.p0(i64 16, ptr %9) #15
  call void @_ZN4absl12lts_2024072212log_internal10LogMessageC1EPKciNS2_8ErrorTagE(ptr noundef nonnull align 8 dereferenceable(16) %9, ptr noundef @.str, i32 noundef 43) #16
  %15 = invoke noundef nonnull align 8 dereferenceable(16) ptr @_ZN4absl12lts_2024072212log_internal10LogMessage14InternalStreamEv(ptr noundef nonnull align 8 dereferenceable(16) %9)
          to label %16 unwind label %20

16:                                               ; preds = %14
  %17 = invoke noundef nonnull align 8 dereferenceable(16) ptr @_ZN4absl12lts_2024072212log_internal10LogMessagelsILi65EEERS2_RAT__Kc(ptr noundef nonnull align 8 dereferenceable(16) %15, ptr noundef nonnull align 1 dereferenceable(65) @.str.2)
          to label %18 unwind label %20

18:                                               ; preds = %16
  invoke void @_ZNKO4absl12lts_2024072212log_internal7VoidifyaaINS1_10LogMessageEEEvRKT_(ptr noundef nonnull align 1 dereferenceable(1) %8, ptr noundef nonnull align 8 dereferenceable(16) %17)
          to label %19 unwind label %20

19:                                               ; preds = %18
  call void @_ZN4absl12lts_2024072212log_internal10LogMessageD1Ev(ptr noundef nonnull align 8 dereferenceable(16) %9) #17
  call void @llvm.lifetime.end.p0(i64 16, ptr %9) #15
  call void @llvm.lifetime.end.p0(i64 1, ptr %8) #15
  store i1 false, ptr %4, align 1
  br label %33

20:                                               ; preds = %18, %16, %14
  %21 = landingpad { ptr, i32 }
          cleanup
  %22 = extractvalue { ptr, i32 } %21, 0
  store ptr %22, ptr %10, align 8
  %23 = extractvalue { ptr, i32 } %21, 1
  store i32 %23, ptr %11, align 4
  call void @_ZN4absl12lts_2024072212log_internal10LogMessageD1Ev(ptr noundef nonnull align 8 dereferenceable(16) %9) #17
  call void @llvm.lifetime.end.p0(i64 16, ptr %9) #15
  call void @llvm.lifetime.end.p0(i64 1, ptr %8) #15
  br label %35

24:                                               ; preds = %3
  %25 = load i32, ptr %6, align 4, !tbaa !8
  %26 = load ptr, ptr %5, align 8, !tbaa !3
  %27 = getelementptr inbounds nuw %struct._grpc_gcp_RpcProtocolVersions, ptr %26, i32 0, i32 1
  %28 = getelementptr inbounds nuw %struct._grpc_gcp_RpcProtocolVersions_Version, ptr %27, i32 0, i32 0
  store i32 %25, ptr %28, align 4, !tbaa !20
  %29 = load i32, ptr %7, align 4, !tbaa !8
  %30 = load ptr, ptr %5, align 8, !tbaa !3
  %31 = getelementptr inbounds nuw %struct._grpc_gcp_RpcProtocolVersions, ptr %30, i32 0, i32 1
  %32 = getelementptr inbounds nuw %struct._grpc_gcp_RpcProtocolVersions_Version, ptr %31, i32 0, i32 1
  store i32 %29, ptr %32, align 4, !tbaa !21
  store i1 true, ptr %4, align 1
  br label %33

33:                                               ; preds = %24, %19
  %34 = load i1, ptr %4, align 1
  ret i1 %34

35:                                               ; preds = %20
  %36 = load ptr, ptr %10, align 8
  %37 = load i32, ptr %11, align 4
  %38 = insertvalue { ptr, i32 } poison, ptr %36, 0
  %39 = insertvalue { ptr, i32 } %38, i32 %37, 1
  resume { ptr, i32 } %39
}

; Function Attrs: mustprogress uwtable
define noundef zeroext i1 @_Z38grpc_gcp_rpc_protocol_versions_set_maxP29_grpc_gcp_RpcProtocolVersionsjj(ptr noundef %0, i32 noundef %1, i32 noundef %2) #0 personality ptr @__gxx_personality_v0 {
  %4 = alloca i1, align 1
  %5 = alloca ptr, align 8
  %6 = alloca i32, align 4
  %7 = alloca i32, align 4
  %8 = alloca %"class.absl::lts_20240722::log_internal::Voidify", align 1
  %9 = alloca %"class.absl::lts_20240722::log_internal::LogMessage", align 8
  %10 = alloca ptr, align 8
  %11 = alloca i32, align 4
  store ptr %0, ptr %5, align 8, !tbaa !3
  store i32 %1, ptr %6, align 4, !tbaa !8
  store i32 %2, ptr %7, align 4, !tbaa !8
  %12 = load ptr, ptr %5, align 8, !tbaa !3
  %13 = icmp eq ptr %12, null
  br i1 %13, label %14, label %24

14:                                               ; preds = %3
  call void @llvm.lifetime.start.p0(i64 1, ptr %8) #15
  call void @llvm.lifetime.start.p0(i64 16, ptr %9) #15
  call void @_ZN4absl12lts_2024072212log_internal10LogMessageC1EPKciNS2_8ErrorTagE(ptr noundef nonnull align 8 dereferenceable(16) %9, ptr noundef @.str, i32 noundef 30) #16
  %15 = invoke noundef nonnull align 8 dereferenceable(16) ptr @_ZN4absl12lts_2024072212log_internal10LogMessage14InternalStreamEv(ptr noundef nonnull align 8 dereferenceable(16) %9)
          to label %16 unwind label %20

16:                                               ; preds = %14
  %17 = invoke noundef nonnull align 8 dereferenceable(16) ptr @_ZN4absl12lts_2024072212log_internal10LogMessagelsILi65EEERS2_RAT__Kc(ptr noundef nonnull align 8 dereferenceable(16) %15, ptr noundef nonnull align 1 dereferenceable(65) @.str.1)
          to label %18 unwind label %20

18:                                               ; preds = %16
  invoke void @_ZNKO4absl12lts_2024072212log_internal7VoidifyaaINS1_10LogMessageEEEvRKT_(ptr noundef nonnull align 1 dereferenceable(1) %8, ptr noundef nonnull align 8 dereferenceable(16) %17)
          to label %19 unwind label %20

19:                                               ; preds = %18
  call void @_ZN4absl12lts_2024072212log_internal10LogMessageD1Ev(ptr noundef nonnull align 8 dereferenceable(16) %9) #17
  call void @llvm.lifetime.end.p0(i64 16, ptr %9) #15
  call void @llvm.lifetime.end.p0(i64 1, ptr %8) #15
  store i1 false, ptr %4, align 1
  br label %33

20:                                               ; preds = %18, %16, %14
  %21 = landingpad { ptr, i32 }
          cleanup
  %22 = extractvalue { ptr, i32 } %21, 0
  store ptr %22, ptr %10, align 8
  %23 = extractvalue { ptr, i32 } %21, 1
  store i32 %23, ptr %11, align 4
  call void @_ZN4absl12lts_2024072212log_internal10LogMessageD1Ev(ptr noundef nonnull align 8 dereferenceable(16) %9) #17
  call void @llvm.lifetime.end.p0(i64 16, ptr %9) #15
  call void @llvm.lifetime.end.p0(i64 1, ptr %8) #15
  br label %35

24:                                               ; preds = %3
  %25 = load i32, ptr %6, align 4, !tbaa !8
  %26 = load ptr, ptr %5, align 8, !tbaa !3
  %27 = getelementptr inbounds nuw %struct._grpc_gcp_RpcProtocolVersions, ptr %26, i32 0, i32 0
  %28 = getelementptr inbounds nuw %struct._grpc_gcp_RpcProtocolVersions_Version, ptr %27, i32 0, i32 0
  store i32 %25, ptr %28, align 4, !tbaa !10
  %29 = load i32, ptr %7, align 4, !tbaa !8
  %30 = load ptr, ptr %5, align 8, !tbaa !3
  %31 = getelementptr inbounds nuw %struct._grpc_gcp_RpcProtocolVersions, ptr %30, i32 0, i32 0
  %32 = getelementptr inbounds nuw %struct._grpc_gcp_RpcProtocolVersions_Version, ptr %31, i32 0, i32 1
  store i32 %29, ptr %32, align 4, !tbaa !13
  store i1 true, ptr %4, align 1
  br label %33

33:                                               ; preds = %24, %19
  %34 = load i1, ptr %4, align 1
  ret i1 %34

35:                                               ; preds = %20
  %36 = load ptr, ptr %10, align 8
  %37 = load i32, ptr %11, align 4
  %38 = insertvalue { ptr, i32 } poison, ptr %36, 0
  %39 = insertvalue { ptr, i32 } %38, i32 %37, 1
  resume { ptr, i32 } %39
}

; Function Attrs: mustprogress nounwind uwtable
define linkonce_odr void @_ZNKO4absl12lts_2024072212log_internal7VoidifyaaINS1_10LogMessageEEEvRKT_(ptr noundef nonnull align 1 dereferenceable(1) %0, ptr noundef nonnull align 8 dereferenceable(16) %1) #2 comdat align 2 {
  %3 = alloca ptr, align 8
  %4 = alloca ptr, align 8
  store ptr %0, ptr %3, align 8, !tbaa !14
  store ptr %1, ptr %4, align 8, !tbaa !16
  ret void
}

; Function Attrs: mustprogress uwtable
define linkonce_odr noundef nonnull align 8 dereferenceable(16) ptr @_ZN4absl12lts_2024072212log_internal10LogMessagelsILi60EEERS2_RAT__Kc(ptr noundef nonnull align 8 dereferenceable(16) %0, ptr noundef nonnull align 1 dereferenceable(60) %1) #0 comdat align 2 {
  %3 = alloca ptr, align 8
  %4 = alloca ptr, align 8
  %5 = alloca %"class.std::basic_string_view", align 8
  store ptr %0, ptr %3, align 8, !tbaa !16
  store ptr %1, ptr %4, align 8, !tbaa !18
  %6 = load ptr, ptr %3, align 8
  %7 = load ptr, ptr %4, align 8, !tbaa !18
  %8 = getelementptr inbounds [60 x i8], ptr %7, i64 0, i64 0
  call void @_ZNSt17basic_string_viewIcSt11char_traitsIcEEC2EPKc(ptr noundef nonnull align 8 dereferenceable(16) %5, ptr noundef %8) #15
  %9 = getelementptr inbounds nuw { i64, ptr }, ptr %5, i32 0, i32 0
  %10 = load i64, ptr %9, align 8
  %11 = getelementptr inbounds nuw { i64, ptr }, ptr %5, i32 0, i32 1
  %12 = load ptr, ptr %11, align 8
  call void @_ZN4absl12lts_2024072212log_internal10LogMessage19CopyToEncodedBufferILNS2_10StringTypeE0EEEvSt17basic_string_viewIcSt11char_traitsIcEE(ptr noundef nonnull align 8 dereferenceable(16) %6, i64 %10, ptr %12)
  ret ptr %6
}

; Function Attrs: mustprogress nounwind uwtable
define linkonce_odr noundef nonnull align 8 dereferenceable(16) ptr @_ZN4absl12lts_2024072212log_internal10LogMessage14InternalStreamEv(ptr noundef nonnull align 8 dereferenceable(16) %0) #2 comdat align 2 {
  %2 = alloca ptr, align 8
  store ptr %0, ptr %2, align 8, !tbaa !16
  %3 = load ptr, ptr %2, align 8
  ret ptr %3
}

; Function Attrs: mustprogress uwtable
define noundef zeroext i1 @_Z35grpc_gcp_rpc_protocol_versions_copyPK29_grpc_gcp_RpcProtocolVersionsPS_(ptr noundef %0, ptr noundef %1) #0 personality ptr @__gxx_personality_v0 {
  %3 = alloca i1, align 1
  %4 = alloca ptr, align 8
  %5 = alloca ptr, align 8
  %6 = alloca %"class.absl::lts_20240722::log_internal::Voidify", align 1
  %7 = alloca %"class.absl::lts_20240722::log_internal::LogMessage", align 8
  %8 = alloca ptr, align 8
  %9 = alloca i32, align 4
  store ptr %0, ptr %4, align 8, !tbaa !3
  store ptr %1, ptr %5, align 8, !tbaa !3
  %10 = load ptr, ptr %4, align 8, !tbaa !3
  %11 = icmp eq ptr %10, null
  br i1 %11, label %12, label %15

12:                                               ; preds = %2
  %13 = load ptr, ptr %5, align 8, !tbaa !3
  %14 = icmp ne ptr %13, null
  br i1 %14, label %21, label %15

15:                                               ; preds = %12, %2
  %16 = load ptr, ptr %4, align 8, !tbaa !3
  %17 = icmp ne ptr %16, null
  br i1 %17, label %18, label %31

18:                                               ; preds = %15
  %19 = load ptr, ptr %5, align 8, !tbaa !3
  %20 = icmp eq ptr %19, null
  br i1 %20, label %21, label %31

21:                                               ; preds = %18, %12
  call void @llvm.lifetime.start.p0(i64 1, ptr %6) #15
  call void @llvm.lifetime.start.p0(i64 16, ptr %7) #15
  call void @_ZN4absl12lts_2024072212log_internal10LogMessageC1EPKciNS2_8ErrorTagE(ptr noundef nonnull align 8 dereferenceable(16) %7, ptr noundef @.str, i32 noundef 155) #16
  %22 = invoke noundef nonnull align 8 dereferenceable(16) ptr @_ZN4absl12lts_2024072212log_internal10LogMessage14InternalStreamEv(ptr noundef nonnull align 8 dereferenceable(16) %7)
          to label %23 unwind label %27

23:                                               ; preds = %21
  %24 = invoke noundef nonnull align 8 dereferenceable(16) ptr @_ZN4absl12lts_2024072212log_internal10LogMessagelsILi60EEERS2_RAT__Kc(ptr noundef nonnull align 8 dereferenceable(16) %22, ptr noundef nonnull align 1 dereferenceable(60) @.str.6)
          to label %25 unwind label %27

25:                                               ; preds = %23
  invoke void @_ZNKO4absl12lts_2024072212log_internal7VoidifyaaINS1_10LogMessageEEEvRKT_(ptr noundef nonnull align 1 dereferenceable(1) %6, ptr noundef nonnull align 8 dereferenceable(16) %24)
          to label %26 unwind label %27

26:                                               ; preds = %25
  call void @_ZN4absl12lts_2024072212log_internal10LogMessageD1Ev(ptr noundef nonnull align 8 dereferenceable(16) %7) #17
  call void @llvm.lifetime.end.p0(i64 16, ptr %7) #15
  call void @llvm.lifetime.end.p0(i64 1, ptr %6) #15
  store i1 false, ptr %3, align 1
  br label %56

27:                                               ; preds = %25, %23, %21
  %28 = landingpad { ptr, i32 }
          cleanup
  %29 = extractvalue { ptr, i32 } %28, 0
  store ptr %29, ptr %8, align 8
  %30 = extractvalue { ptr, i32 } %28, 1
  store i32 %30, ptr %9, align 4
  call void @_ZN4absl12lts_2024072212log_internal10LogMessageD1Ev(ptr noundef nonnull align 8 dereferenceable(16) %7) #17
  call void @llvm.lifetime.end.p0(i64 16, ptr %7) #15
  call void @llvm.lifetime.end.p0(i64 1, ptr %6) #15
  br label %58

31:                                               ; preds = %18, %15
  %32 = load ptr, ptr %4, align 8, !tbaa !3
  %33 = icmp eq ptr %32, null
  br i1 %33, label %34, label %35

34:                                               ; preds = %31
  store i1 true, ptr %3, align 1
  br label %56

35:                                               ; preds = %31
  %36 = load ptr, ptr %5, align 8, !tbaa !3
  %37 = load ptr, ptr %4, align 8, !tbaa !3
  %38 = getelementptr inbounds nuw %struct._grpc_gcp_RpcProtocolVersions, ptr %37, i32 0, i32 0
  %39 = getelementptr inbounds nuw %struct._grpc_gcp_RpcProtocolVersions_Version, ptr %38, i32 0, i32 0
  %40 = load i32, ptr %39, align 4, !tbaa !10
  %41 = load ptr, ptr %4, align 8, !tbaa !3
  %42 = getelementptr inbounds nuw %struct._grpc_gcp_RpcProtocolVersions, ptr %41, i32 0, i32 0
  %43 = getelementptr inbounds nuw %struct._grpc_gcp_RpcProtocolVersions_Version, ptr %42, i32 0, i32 1
  %44 = load i32, ptr %43, align 4, !tbaa !13
  %45 = call noundef zeroext i1 @_Z38grpc_gcp_rpc_protocol_versions_set_maxP29_grpc_gcp_RpcProtocolVersionsjj(ptr noundef %36, i32 noundef %40, i32 noundef %44)
  %46 = load ptr, ptr %5, align 8, !tbaa !3
  %47 = load ptr, ptr %4, align 8, !tbaa !3
  %48 = getelementptr inbounds nuw %struct._grpc_gcp_RpcProtocolVersions, ptr %47, i32 0, i32 1
  %49 = getelementptr inbounds nuw %struct._grpc_gcp_RpcProtocolVersions_Version, ptr %48, i32 0, i32 0
  %50 = load i32, ptr %49, align 4, !tbaa !20
  %51 = load ptr, ptr %4, align 8, !tbaa !3
  %52 = getelementptr inbounds nuw %struct._grpc_gcp_RpcProtocolVersions, ptr %51, i32 0, i32 1
  %53 = getelementptr inbounds nuw %struct._grpc_gcp_RpcProtocolVersions_Version, ptr %52, i32 0, i32 1
  %54 = load i32, ptr %53, align 4, !tbaa !21
  %55 = call noundef zeroext i1 @_Z38grpc_gcp_rpc_protocol_versions_set_minP29_grpc_gcp_RpcProtocolVersionsjj(ptr noundef %46, i32 noundef %50, i32 noundef %54)
  store i1 true, ptr %3, align 1
  br label %56

56:                                               ; preds = %35, %34, %26
  %57 = load i1, ptr %3, align 1
  ret i1 %57

58:                                               ; preds = %27
  %59 = load ptr, ptr %8, align 8
  %60 = load i32, ptr %9, align 4
  %61 = insertvalue { ptr, i32 } poison, ptr %59, 0
  %62 = insertvalue { ptr, i32 } %61, i32 %60, 1
  resume { ptr, i32 } %62
}