; Function Attrs: mustprogress uwtable
define noundef zeroext i1 @_Z35grpc_gcp_rpc_protocol_versions_copyPK29_grpc_gcp_RpcProtocolVersionsPS_(ptr noundef readonly %0, ptr noundef writeonly %1) local_unnamed_addr #0 personality ptr @__gxx_personality_v0 {
  %3 = alloca %"class.absl::lts_20240722::log_internal::LogMessage", align 8
  %4 = alloca %"class.absl::lts_20240722::log_internal::LogMessage", align 8
  %5 = alloca %"class.absl::lts_20240722::log_internal::LogMessage", align 8
  %6 = icmp eq ptr %0, null
  %7 = icmp ne ptr %1, null
  %or.cond = and i1 %6, %7
  br i1 %or.cond, label %11, label %8

8:                                                ; preds = %2
  %9 = icmp ne ptr %0, null
  %10 = icmp eq ptr %1, null
  %or.cond3 = and i1 %9, %10
  br i1 %or.cond3, label %11, label %14

11:                                               ; preds = %8, %2
  call void @llvm.lifetime.start.p0(i64 16, ptr nonnull %5) #11
  call void @_ZN4absl12lts_2024072212log_internal10LogMessageC1EPKciNS2_8ErrorTagE(ptr noundef nonnull align 8 dereferenceable(16) %5, ptr noundef nonnull @.str, i32 noundef 155) #12
  invoke void @_ZN4absl12lts_2024072212log_internal10LogMessage19CopyToEncodedBufferILNS2_10StringTypeE0EEEvSt17basic_string_viewIcSt11char_traitsIcEE(ptr noundef nonnull align 8 dereferenceable(16) %5, i64 59, ptr nonnull @.str.6)
          to label %_ZN4absl12lts_2024072212log_internal10LogMessagelsILi60EEERS2_RAT__Kc.exit unwind label %12

_ZN4absl12lts_2024072212log_internal10LogMessagelsILi60EEERS2_RAT__Kc.exit: ; preds = %11
  call void @_ZN4absl12lts_2024072212log_internal10LogMessageD1Ev(ptr noundef nonnull align 8 dereferenceable(16) %5) #13
  call void @llvm.lifetime.end.p0(i64 16, ptr nonnull %5) #11
  br label %_Z38grpc_gcp_rpc_protocol_versions_set_minP29_grpc_gcp_RpcProtocolVersionsjj.exit

common.resume:                                    ; preds = %20, %17, %12
  %common.resume.op = phi { ptr, i32 } [ %13, %12 ], [ %18, %17 ], [ %21, %20 ]
  resume { ptr, i32 } %common.resume.op

12:                                               ; preds = %11
  %13 = landingpad { ptr, i32 }
          cleanup
  call void @_ZN4absl12lts_2024072212log_internal10LogMessageD1Ev(ptr noundef nonnull align 8 dereferenceable(16) %5) #13
  call void @llvm.lifetime.end.p0(i64 16, ptr nonnull %5) #11
  br label %common.resume

14:                                               ; preds = %8
  br i1 %6, label %_Z38grpc_gcp_rpc_protocol_versions_set_minP29_grpc_gcp_RpcProtocolVersionsjj.exit, label %15

15:                                               ; preds = %14
  br i1 %7, label %22, label %16

16:                                               ; preds = %15
  call void @llvm.lifetime.start.p0(i64 16, ptr nonnull %4) #11
  call void @_ZN4absl12lts_2024072212log_internal10LogMessageC1EPKciNS2_8ErrorTagE(ptr noundef nonnull align 8 dereferenceable(16) %4, ptr noundef nonnull @.str, i32 noundef 30) #12
  invoke void @_ZN4absl12lts_2024072212log_internal10LogMessage19CopyToEncodedBufferILNS2_10StringTypeE0EEEvSt17basic_string_viewIcSt11char_traitsIcEE(ptr noundef nonnull align 8 dereferenceable(16) %4, i64 64, ptr nonnull @.str.1)
          to label %19 unwind label %17

17:                                               ; preds = %16
  %18 = landingpad { ptr, i32 }
          cleanup
  call void @_ZN4absl12lts_2024072212log_internal10LogMessageD1Ev(ptr noundef nonnull align 8 dereferenceable(16) %4) #13
  call void @llvm.lifetime.end.p0(i64 16, ptr nonnull %4) #11
  br label %common.resume

19:                                               ; preds = %16
  call void @_ZN4absl12lts_2024072212log_internal10LogMessageD1Ev(ptr noundef nonnull align 8 dereferenceable(16) %4) #13
  call void @llvm.lifetime.end.p0(i64 16, ptr nonnull %4) #11
  call void @llvm.lifetime.start.p0(i64 16, ptr nonnull %3) #11
  call void @_ZN4absl12lts_2024072212log_internal10LogMessageC1EPKciNS2_8ErrorTagE(ptr noundef nonnull align 8 dereferenceable(16) %3, ptr noundef nonnull @.str, i32 noundef 43) #12
  invoke void @_ZN4absl12lts_2024072212log_internal10LogMessage19CopyToEncodedBufferILNS2_10StringTypeE0EEEvSt17basic_string_viewIcSt11char_traitsIcEE(ptr noundef nonnull align 8 dereferenceable(16) %3, i64 64, ptr nonnull @.str.2)
          to label %_ZN4absl12lts_2024072212log_internal10LogMessagelsILi65EEERS2_RAT__Kc.exit.i17 unwind label %20

_ZN4absl12lts_2024072212log_internal10LogMessagelsILi65EEERS2_RAT__Kc.exit.i17: ; preds = %19
  call void @_ZN4absl12lts_2024072212log_internal10LogMessageD1Ev(ptr noundef nonnull align 8 dereferenceable(16) %3) #13
  call void @llvm.lifetime.end.p0(i64 16, ptr nonnull %3) #11
  br label %_Z38grpc_gcp_rpc_protocol_versions_set_minP29_grpc_gcp_RpcProtocolVersionsjj.exit

20:                                               ; preds = %19
  %21 = landingpad { ptr, i32 }
          cleanup
  call void @_ZN4absl12lts_2024072212log_internal10LogMessageD1Ev(ptr noundef nonnull align 8 dereferenceable(16) %3) #13
  call void @llvm.lifetime.end.p0(i64 16, ptr nonnull %3) #11
  br label %common.resume

22:                                               ; preds = %15
  %23 = getelementptr inbounds nuw i8, ptr %0, i64 4
  %24 = load i32, ptr %23, align 4, !tbaa !9
  %25 = load i32, ptr %0, align 4, !tbaa !3
  store i32 %25, ptr %1, align 4, !tbaa !3
  %26 = getelementptr inbounds nuw i8, ptr %1, i64 4
  store i32 %24, ptr %26, align 4, !tbaa !9
  %27 = getelementptr inbounds nuw i8, ptr %0, i64 8
  %28 = load i32, ptr %27, align 4, !tbaa !10
  %29 = getelementptr inbounds nuw i8, ptr %0, i64 12
  %30 = load i32, ptr %29, align 4, !tbaa !11
  %31 = getelementptr inbounds nuw i8, ptr %1, i64 8
  store i32 %28, ptr %31, align 4, !tbaa !10
  %32 = getelementptr inbounds nuw i8, ptr %1, i64 12
  store i32 %30, ptr %32, align 4, !tbaa !11
  br label %_Z38grpc_gcp_rpc_protocol_versions_set_minP29_grpc_gcp_RpcProtocolVersionsjj.exit

_Z38grpc_gcp_rpc_protocol_versions_set_minP29_grpc_gcp_RpcProtocolVersionsjj.exit: ; preds = %22, %_ZN4absl12lts_2024072212log_internal10LogMessagelsILi65EEERS2_RAT__Kc.exit.i17, %14, %_ZN4absl12lts_2024072212log_internal10LogMessagelsILi60EEERS2_RAT__Kc.exit
  %.0 = phi i1 [ false, %_ZN4absl12lts_2024072212log_internal10LogMessagelsILi60EEERS2_RAT__Kc.exit ], [ true, %14 ], [ true, %_ZN4absl12lts_2024072212log_internal10LogMessagelsILi65EEERS2_RAT__Kc.exit.i17 ], [ true, %22 ]
  ret i1 %.0
}